target datalayout = "e-m:e-p270:32:32-p271:32:32-p272:64:64-i64:64-i128:128-f80:128-n8:16:32:64-S128"
target triple = "x86_64-pc-linux-gnu"

%struct.Color = type { i8, i8, i8, i8 }
%struct.Vector2 = type { float, float }

; Function Attrs: nounwind uwtable
define void @DrawLineStrip(ptr noundef %0, i32 noundef %1, i32 %2) #2 {
  %4 = alloca %struct.Color, align 1
  %5 = alloca ptr, align 8
  %6 = alloca i32, align 4
  %7 = alloca i32, align 4
  store i32 %2, ptr %4, align 1
  store ptr %0, ptr %5, align 8
  store i32 %1, ptr %6, align 4
  %8 = load i32, ptr %6, align 4
  %9 = icmp slt i32 %8, 2
  br i1 %9, label %10, label %11

10:                                               ; preds = %3
  br label %57

11:                                               ; preds = %3
  call void @rlBegin(i32 noundef 1)
  %12 = getelementptr inbounds nuw %struct.Color, ptr %4, i32 0, i32 0
  %13 = load i8, ptr %12, align 1
  %14 = getelementptr inbounds nuw %struct.Color, ptr %4, i32 0, i32 1
  %15 = load i8, ptr %14, align 1
  %16 = getelementptr inbounds nuw %struct.Color, ptr %4, i32 0, i32 2
  %17 = load i8, ptr %16, align 1
  %18 = getelementptr inbounds nuw %struct.Color, ptr %4, i32 0, i32 3
  %19 = load i8, ptr %18, align 1
  call void @rlColor4ub(i8 noundef zeroext %13, i8 noundef zeroext %15, i8 noundef zeroext %17, i8 noundef zeroext %19)
  call void @llvm.lifetime.start.p0(i64 4, ptr %7) #8
  store i32 0, ptr %7, align 4
  br label %20

20:                                               ; preds = %53, %11
  %21 = load i32, ptr %7, align 4
  %22 = load i32, ptr %6, align 4
  %23 = sub nsw i32 %22, 1
  %24 = icmp slt i32 %21, %23
  br i1 %24, label %26, label %25

25:                                               ; preds = %20
  call void @llvm.lifetime.end.p0(i64 4, ptr %7) #8
  br label %56

26:                                               ; preds = %20
  %27 = load ptr, ptr %5, align 8
  %28 = load i32, ptr %7, align 4
  %29 = sext i32 %28 to i64
  %30 = getelementptr inbounds %struct.Vector2, ptr %27, i64 %29
  %31 = getelementptr inbounds nuw %struct.Vector2, ptr %30, i32 0, i32 0
  %32 = load float, ptr %31, align 4
  %33 = load ptr, ptr %5, align 8
  %34 = load i32, ptr %7, align 4
  %35 = sext i32 %34 to i64
  %36 = getelementptr inbounds %struct.Vector2, ptr %33, i64 %35
  %37 = getelementptr inbounds nuw %struct.Vector2, ptr %36, i32 0, i32 1
  %38 = load float, ptr %37, align 4
  call void @rlVertex2f(float noundef %32, float noundef %38)
  %39 = load ptr, ptr %5, align 8
  %40 = load i32, ptr %7, align 4
  %41 = add nsw i32 %40, 1
  %42 = sext i32 %41 to i64
  %43 = getelementptr inbounds %struct.Vector2, ptr %39, i64 %42
  %44 = getelementptr inbounds nuw %struct.Vector2, ptr %43, i32 0, i32 0
  %45 = load float, ptr %44, align 4
  %46 = load ptr, ptr %5, align 8
  %47 = load i32, ptr %7, align 4
  %48 = add nsw i32 %47, 1
  %49 = sext i32 %48 to i64
  %50 = getelementptr inbounds %struct.Vector2, ptr %46, i64 %49
  %51 = getelementptr inbounds nuw %struct.Vector2, ptr %50, i32 0, i32 1
  %52 = load float, ptr %51, align 4
  call void @rlVertex2f(float noundef %45, float noundef %52)
  br label %53

53:                                               ; preds = %26
  %54 = load i32, ptr %7, align 4
  %55 = add nsw i32 %54, 1
  store i32 %55, ptr %7, align 4
  br label %20

56:                                               ; preds = %25
  call void @rlEnd()
  br label %57

57:                                               ; preds = %56, %10
  ret void
}