; Function Attrs: nounwind uwtable
define void @DrawLineStrip(ptr noundef readonly captures(none) %0, i32 noundef %1, i32 %2) local_unnamed_addr #7 {
  %4 = icmp slt i32 %1, 2
  br i1 %4, label %14, label %.lr.ph.preheader

.lr.ph.preheader:                                 ; preds = %3
  %.sroa.4.0.extract.shift = lshr i32 %2, 24
  %.sroa.4.0.extract.trunc = trunc nuw i32 %.sroa.4.0.extract.shift to i8
  %.sroa.3.0.extract.shift = lshr i32 %2, 16
  %.sroa.3.0.extract.trunc = trunc i32 %.sroa.3.0.extract.shift to i8
  %.sroa.2.0.extract.shift = lshr i32 %2, 8
  %.sroa.2.0.extract.trunc = trunc i32 %.sroa.2.0.extract.shift to i8
  %.sroa.0.0.extract.trunc = trunc i32 %2 to i8
  tail call void @rlBegin(i32 noundef 1) #16
  tail call void @rlColor4ub(i8 noundef zeroext %.sroa.0.0.extract.trunc, i8 noundef zeroext %.sroa.2.0.extract.trunc, i8 noundef zeroext %.sroa.3.0.extract.trunc, i8 noundef zeroext %.sroa.4.0.extract.trunc) #16
  %5 = add nsw i32 %1, -1
  %wide.trip.count = zext nneg i32 %5 to i64
  br label %.lr.ph

._crit_edge:                                      ; preds = %.lr.ph
  tail call void @rlEnd() #16
  br label %14

.lr.ph:                                           ; preds = %.lr.ph.preheader, %.lr.ph
  %indvars.iv = phi i64 [ 0, %.lr.ph.preheader ], [ %indvars.iv.next, %.lr.ph ]
  %6 = getelementptr inbounds nuw %struct.Vector2, ptr %0, i64 %indvars.iv
  %7 = load float, ptr %6, align 4
  %8 = getelementptr inbounds nuw i8, ptr %6, i64 4
  %9 = load float, ptr %8, align 4
  tail call void @rlVertex2f(float noundef %7, float noundef %9) #16
  %indvars.iv.next = add nuw nsw i64 %indvars.iv, 1
  %10 = getelementptr inbounds nuw %struct.Vector2, ptr %0, i64 %indvars.iv.next
  %11 = load float, ptr %10, align 4
  %12 = getelementptr inbounds nuw i8, ptr %10, i64 4
  %13 = load float, ptr %12, align 4
  tail call void @rlVertex2f(float noundef %11, float noundef %13) #16
  %exitcond.not = icmp eq i64 %indvars.iv.next, %wide.trip.count
  br i1 %exitcond.not, label %._crit_edge, label %.lr.ph

14:                                               ; preds = %3, %._crit_edge
  ret void
}